; Function Attrs: mustprogress uwtable
define hidden void @_ZN4LIEF10SpanStreamC2ERKSt6vectorIhSaIhEE(ptr noundef nonnull align 8 dereferenceable(40) %0, ptr nocapture noundef nonnull readonly align 8 dereferenceable(24) %1) unnamed_addr #5 align 2 personality ptr @__gxx_personality_v0 {
  tail call void @_ZN4LIEF12BinaryStreamC2Ev(ptr noundef nonnull align 8 dereferenceable(24) %0)
  store ptr getelementptr inbounds ({ [15 x ptr] }, ptr @_ZTVN4LIEF10SpanStreamE, i64 0, i32 0, i64 2), ptr %0, align 8
  %3 = getelementptr inbounds i8, ptr %0, i64 24
  %4 = load ptr, ptr %1, align 8
  %5 = getelementptr inbounds i8, ptr %1, i64 8
  %6 = load ptr, ptr %5, align 8
  %7 = ptrtoint ptr %6 to i64
  %8 = ptrtoint ptr %4 to i64
  %9 = sub i64 %7, %8
  store ptr %4, ptr %3, align 8
  %10 = getelementptr inbounds i8, ptr %0, i64 32
  store i64 %9, ptr %10, align 8
  %11 = getelementptr inbounds i8, ptr %0, i64 20
  store i32 3, ptr %11, align 4
  ret void
}